; ModuleID = '55/379.c'
source_filename = "55/379.c"
target datalayout = "e-m:e-p270:32:32-p271:32:32-p272:64:64-i64:64-f80:128-n8:16:32:64-S128"
target triple = "x86_64-pc-linux-gnu"

@.str = private unnamed_addr constant [3 x i8] c"%d\00", align 1
@.str.1 = private unnamed_addr constant [3 x i8] c"%s\00", align 1
@.str.2 = private unnamed_addr constant [3 x i8] c"%c\00", align 1
@.str.3 = private unnamed_addr constant [2 x i8] c"\0A\00", align 1

; Function Attrs: noinline nounwind uwtable
define dso_local void @main() #0 {
  %1 = alloca i32, align 4
  %2 = alloca i32, align 4
  %3 = alloca i32, align 4
  %4 = alloca i32, align 4
  %5 = alloca i32, align 4
  %6 = alloca i32, align 4
  %7 = alloca i32, align 4
  %8 = alloca i32, align 4
  %9 = alloca i8, align 1
  %10 = alloca [50 x i8], align 16
  %11 = alloca [50 x i8], align 16
  %12 = alloca i64, align 8
  store i32 0, i32* %6, align 4
  store i32 1, i32* %7, align 4
  %13 = bitcast [50 x i8]* %10 to i8*
  call void @llvm.memset.p0i8.i64(i8* align 16 %13, i8 0, i64 50, i1 false)
  %14 = bitcast [50 x i8]* %11 to i8*
  call void @llvm.memset.p0i8.i64(i8* align 16 %14, i8 0, i64 50, i1 false)
  store i64 0, i64* %12, align 8
  %15 = call i32 (i8*, ...) @__isoc99_scanf(i8* getelementptr inbounds ([3 x i8], [3 x i8]* @.str, i64 0, i64 0), i32* %1)
  %16 = getelementptr inbounds [50 x i8], [50 x i8]* %10, i64 0, i64 0
  %17 = call i32 (i8*, ...) @__isoc99_scanf(i8* getelementptr inbounds ([3 x i8], [3 x i8]* @.str.1, i64 0, i64 0), i8* %16)
  %18 = call i32 (i8*, ...) @__isoc99_scanf(i8* getelementptr inbounds ([3 x i8], [3 x i8]* @.str, i64 0, i64 0), i32* %2)
  %19 = getelementptr inbounds [50 x i8], [50 x i8]* %10, i64 0, i64 0
  %20 = call i64 @strlen(i8* %19) #4
  %21 = trunc i64 %20 to i32
  store i32 %21, i32* %3, align 4
  store i32 0, i32* %5, align 4
  br label %22

22:                                               ; preds = %99, %0
  %23 = load i32, i32* %5, align 4
  %24 = load i32, i32* %3, align 4
  %25 = icmp slt i32 %23, %24
  br i1 %25, label %26, label %102

26:                                               ; preds = %22
  %27 = load i32, i32* %5, align 4
  %28 = sext i32 %27 to i64
  %29 = getelementptr inbounds [50 x i8], [50 x i8]* %10, i64 0, i64 %28
  %30 = load i8, i8* %29, align 1
  %31 = sext i8 %30 to i32
  %32 = icmp sle i32 %31, 122
  br i1 %32, label %33, label %47

33:                                               ; preds = %26
  %34 = load i32, i32* %5, align 4
  %35 = sext i32 %34 to i64
  %36 = getelementptr inbounds [50 x i8], [50 x i8]* %10, i64 0, i64 %35
  %37 = load i8, i8* %36, align 1
  %38 = sext i8 %37 to i32
  %39 = icmp sge i32 %38, 97
  br i1 %39, label %40, label %47

40:                                               ; preds = %33
  %41 = load i32, i32* %5, align 4
  %42 = sext i32 %41 to i64
  %43 = getelementptr inbounds [50 x i8], [50 x i8]* %10, i64 0, i64 %42
  %44 = load i8, i8* %43, align 1
  %45 = sext i8 %44 to i32
  %46 = sub nsw i32 %45, 87
  store i32 %46, i32* %8, align 4
  br label %91

47:                                               ; preds = %33, %26
  %48 = load i32, i32* %5, align 4
  %49 = sext i32 %48 to i64
  %50 = getelementptr inbounds [50 x i8], [50 x i8]* %10, i64 0, i64 %49
  %51 = load i8, i8* %50, align 1
  %52 = sext i8 %51 to i32
  %53 = icmp sle i32 %52, 90
  br i1 %53, label %54, label %68

54:                                               ; preds = %47
  %55 = load i32, i32* %5, align 4
  %56 = sext i32 %55 to i64
  %57 = getelementptr inbounds [50 x i8], [50 x i8]* %10, i64 0, i64 %56
  %58 = load i8, i8* %57, align 1
  %59 = sext i8 %58 to i32
  %60 = icmp sge i32 %59, 65
  br i1 %60, label %61, label %68

61:                                               ; preds = %54
  %62 = load i32, i32* %5, align 4
  %63 = sext i32 %62 to i64
  %64 = getelementptr inbounds [50 x i8], [50 x i8]* %10, i64 0, i64 %63
  %65 = load i8, i8* %64, align 1
  %66 = sext i8 %65 to i32
  %67 = sub nsw i32 %66, 55
  store i32 %67, i32* %8, align 4
  br label %90

68:                                               ; preds = %54, %47
  %69 = load i32, i32* %5, align 4
  %70 = sext i32 %69 to i64
  %71 = getelementptr inbounds [50 x i8], [50 x i8]* %10, i64 0, i64 %70
  %72 = load i8, i8* %71, align 1
  %73 = sext i8 %72 to i32
  %74 = icmp sle i32 %73, 57
  br i1 %74, label %75, label %89

75:                                               ; preds = %68
  %76 = load i32, i32* %5, align 4
  %77 = sext i32 %76 to i64
  %78 = getelementptr inbounds [50 x i8], [50 x i8]* %10, i64 0, i64 %77
  %79 = load i8, i8* %78, align 1
  %80 = sext i8 %79 to i32
  %81 = icmp sge i32 %80, 48
  br i1 %81, label %82, label %89

82:                                               ; preds = %75
  %83 = load i32, i32* %5, align 4
  %84 = sext i32 %83 to i64
  %85 = getelementptr inbounds [50 x i8], [50 x i8]* %10, i64 0, i64 %84
  %86 = load i8, i8* %85, align 1
  %87 = sext i8 %86 to i32
  %88 = sub nsw i32 %87, 48
  store i32 %88, i32* %8, align 4
  br label %89

89:                                               ; preds = %82, %75, %68
  br label %90

90:                                               ; preds = %89, %61
  br label %91

91:                                               ; preds = %90, %40
  %92 = load i32, i32* %1, align 4
  %93 = sext i32 %92 to i64
  %94 = load i64, i64* %12, align 8
  %95 = mul nsw i64 %93, %94
  %96 = load i32, i32* %8, align 4
  %97 = sext i32 %96 to i64
  %98 = add nsw i64 %95, %97
  store i64 %98, i64* %12, align 8
  br label %99

99:                                               ; preds = %91
  %100 = load i32, i32* %5, align 4
  %101 = add nsw i32 %100, 1
  store i32 %101, i32* %5, align 4
  br label %22

102:                                              ; preds = %22
  br label %103

103:                                              ; preds = %159, %102
  %104 = load i32, i32* %7, align 4
  %105 = icmp ne i32 %104, 0
  br i1 %105, label %106, label %168

106:                                              ; preds = %103
  %107 = load i64, i64* %12, align 8
  %108 = load i32, i32* %2, align 4
  %109 = sext i32 %108 to i64
  %110 = srem i64 %107, %109
  %111 = trunc i64 %110 to i8
  %112 = load i32, i32* %6, align 4
  %113 = sext i32 %112 to i64
  %114 = getelementptr inbounds [50 x i8], [50 x i8]* %11, i64 0, i64 %113
  store i8 %111, i8* %114, align 1
  %115 = load i32, i32* %6, align 4
  %116 = sext i32 %115 to i64
  %117 = getelementptr inbounds [50 x i8], [50 x i8]* %11, i64 0, i64 %116
  %118 = load i8, i8* %117, align 1
  %119 = sext i8 %118 to i32
  %120 = icmp sle i32 %119, 35
  br i1 %120, label %121, label %136

121:                                              ; preds = %106
  %122 = load i32, i32* %6, align 4
  %123 = sext i32 %122 to i64
  %124 = getelementptr inbounds [50 x i8], [50 x i8]* %11, i64 0, i64 %123
  %125 = load i8, i8* %124, align 1
  %126 = sext i8 %125 to i32
  %127 = icmp sge i32 %126, 10
  br i1 %127, label %128, label %136

128:                                              ; preds = %121
  %129 = load i32, i32* %6, align 4
  %130 = sext i32 %129 to i64
  %131 = getelementptr inbounds [50 x i8], [50 x i8]* %11, i64 0, i64 %130
  %132 = load i8, i8* %131, align 1
  %133 = sext i8 %132 to i32
  %134 = add nsw i32 %133, 55
  %135 = trunc i32 %134 to i8
  store i8 %135, i8* %131, align 1
  br label %159

136:                                              ; preds = %121, %106
  %137 = load i32, i32* %6, align 4
  %138 = sext i32 %137 to i64
  %139 = getelementptr inbounds [50 x i8], [50 x i8]* %11, i64 0, i64 %138
  %140 = load i8, i8* %139, align 1
  %141 = sext i8 %140 to i32
  %142 = icmp sle i32 %141, 9
  br i1 %142, label %143, label %158

143:                                              ; preds = %136
  %144 = load i32, i32* %6, align 4
  %145 = sext i32 %144 to i64
  %146 = getelementptr inbounds [50 x i8], [50 x i8]* %11, i64 0, i64 %145
  %147 = load i8, i8* %146, align 1
  %148 = sext i8 %147 to i32
  %149 = icmp sge i32 %148, 0
  br i1 %149, label %150, label %158

150:                                              ; preds = %143
  %151 = load i32, i32* %6, align 4
  %152 = sext i32 %151 to i64
  %153 = getelementptr inbounds [50 x i8], [50 x i8]* %11, i64 0, i64 %152
  %154 = load i8, i8* %153, align 1
  %155 = sext i8 %154 to i32
  %156 = add nsw i32 %155, 48
  %157 = trunc i32 %156 to i8
  store i8 %157, i8* %153, align 1
  br label %158

158:                                              ; preds = %150, %143, %136
  br label %159

159:                                              ; preds = %158, %128
  %160 = load i64, i64* %12, align 8
  %161 = load i32, i32* %2, align 4
  %162 = sext i32 %161 to i64
  %163 = sdiv i64 %160, %162
  store i64 %163, i64* %12, align 8
  %164 = load i64, i64* %12, align 8
  %165 = trunc i64 %164 to i32
  store i32 %165, i32* %7, align 4
  %166 = load i32, i32* %6, align 4
  %167 = add nsw i32 %166, 1
  store i32 %167, i32* %6, align 4
  br label %103

168:                                              ; preds = %103
  %169 = getelementptr inbounds [50 x i8], [50 x i8]* %11, i64 0, i64 0
  %170 = call i64 @strlen(i8* %169) #4
  %171 = trunc i64 %170 to i32
  store i32 %171, i32* %4, align 4
  %172 = load i32, i32* %4, align 4
  %173 = sub nsw i32 %172, 1
  store i32 %173, i32* %6, align 4
  br label %174

174:                                              ; preds = %184, %168
  %175 = load i32, i32* %6, align 4
  %176 = icmp sge i32 %175, 0
  br i1 %176, label %177, label %187

177:                                              ; preds = %174
  %178 = load i32, i32* %6, align 4
  %179 = sext i32 %178 to i64
  %180 = getelementptr inbounds [50 x i8], [50 x i8]* %11, i64 0, i64 %179
  %181 = load i8, i8* %180, align 1
  %182 = sext i8 %181 to i32
  %183 = call i32 (i8*, ...) @printf(i8* getelementptr inbounds ([3 x i8], [3 x i8]* @.str.2, i64 0, i64 0), i32 %182)
  br label %184

184:                                              ; preds = %177
  %185 = load i32, i32* %6, align 4
  %186 = add nsw i32 %185, -1
  store i32 %186, i32* %6, align 4
  br label %174

187:                                              ; preds = %174
  %188 = call i32 (i8*, ...) @printf(i8* getelementptr inbounds ([2 x i8], [2 x i8]* @.str.3, i64 0, i64 0))
  ret void
}

; Function Attrs: argmemonly nounwind willreturn
declare void @llvm.memset.p0i8.i64(i8* nocapture writeonly, i8, i64, i1 immarg) #1

declare dso_local i32 @__isoc99_scanf(i8*, ...) #2

; Function Attrs: nounwind readonly
declare dso_local i64 @strlen(i8*) #3

declare dso_local i32 @printf(i8*, ...) #2


!llvm.module.flags = !{!0}
!llvm.ident = !{!1}

!0 = !{i32 1, !"wchar_size", i32 4}
!1 = !{!"clang version 10.0.0-4ubuntu1 "}
